target datalayout = "e-m:e-p270:32:32-p271:32:32-p272:64:64-i64:64-i128:128-f80:128-n8:16:32:64-S128"
target triple = "x86_64-pc-linux-gnu"

%union.anon.1 = type { ptr }
%struct.OptionDef = type { ptr, i32, i32, %union.anon.0, ptr, ptr, %union.anon.1 }
%union.anon.0 = type { ptr }
%struct.SpecifierOptList = type { ptr, i32, ptr, i32 }
%struct.SpecifierOpt = type { ptr, %struct.StreamSpecifier, %union.anon }
%struct.StreamSpecifier = type { i32, i32, i64, i32, i8, i8, i32, ptr, ptr, ptr }
%union.anon = type { ptr }
%struct.ViewSpecifier = type { i32, i32 }
%struct.OptionsContext = type { ptr, i64, i64, i32, ptr, %struct.SpecifierOptList, %struct.SpecifierOptList, %struct.SpecifierOptList, %struct.SpecifierOptList, %struct.SpecifierOptList, %struct.SpecifierOptList, %struct.SpecifierOptList, %struct.SpecifierOptList, i64, i32, i32, float, float, double, i32, i32, i32, i32, %struct.SpecifierOptList, %struct.SpecifierOptList, %struct.SpecifierOptList, %struct.SpecifierOptList, %struct.SpecifierOptList, %struct.SpecifierOptList, %struct.SpecifierOptList, ptr, i32, ptr, i32, i32, i64, i64, i64, float, float, float, i32, i32, i32, i32, i32, i32, ptr, %struct.SpecifierOptList, %struct.SpecifierOptList, %struct.SpecifierOptList, %struct.SpecifierOptList, %struct.SpecifierOptList, %struct.SpecifierOptList, %struct.SpecifierOptList, %struct.SpecifierOptList, %struct.SpecifierOptList, %struct.SpecifierOptList, %struct.SpecifierOptList, %struct.SpecifierOptList, %struct.SpecifierOptList, %struct.SpecifierOptList, %struct.SpecifierOptList, %struct.SpecifierOptList, %struct.SpecifierOptList, %struct.SpecifierOptList, %struct.SpecifierOptList, %struct.SpecifierOptList, %struct.SpecifierOptList, %struct.SpecifierOptList, %struct.SpecifierOptList, %struct.SpecifierOptList, %struct.SpecifierOptList, %struct.SpecifierOptList, %struct.SpecifierOptList, %struct.SpecifierOptList, %struct.SpecifierOptList, %struct.SpecifierOptList, %struct.SpecifierOptList, %struct.SpecifierOptList, %struct.SpecifierOptList, %struct.SpecifierOptList, %struct.SpecifierOptList, %struct.SpecifierOptList, %struct.SpecifierOptList, %struct.SpecifierOptList, %struct.SpecifierOptList, %struct.SpecifierOptList, %struct.SpecifierOptList, %struct.SpecifierOptList, %struct.SpecifierOptList, %struct.SpecifierOptList, %struct.SpecifierOptList, %struct.SpecifierOptList, %struct.SpecifierOptList, %struct.SpecifierOptList, %struct.SpecifierOptList }
%struct.StreamMap = type { i32, i32, i32, ptr, %struct.ViewSpecifier }

; Function Attrs: nounwind uwtable
define internal void @uninit_options(ptr noundef %0) #0 {
  %2 = alloca ptr, align 8
  %3 = alloca ptr, align 8
  %4 = alloca i32, align 4
  %5 = alloca ptr, align 8
  %6 = alloca ptr, align 8
  %7 = alloca i32, align 4
  %8 = alloca i32, align 4
  %9 = alloca i32, align 4
  store ptr %0, ptr %2, align 8, !tbaa !151
  call void @llvm.lifetime.start.p0(i64 8, ptr %3) #12
  store ptr @options, ptr %3, align 8, !tbaa !213
  br label %10

10:                                               ; preds = %98, %1
  %11 = load ptr, ptr %3, align 8, !tbaa !213
  %12 = getelementptr inbounds nuw %struct.OptionDef, ptr %11, i32 0, i32 0
  %13 = load ptr, ptr %12, align 8, !tbaa !39
  %14 = icmp ne ptr %13, null
  br i1 %14, label %16, label %15

15:                                               ; preds = %10
  store i32 2, ptr %4, align 4
  call void @llvm.lifetime.end.p0(i64 8, ptr %3) #12
  br label %101

16:                                               ; preds = %10
  call void @llvm.lifetime.start.p0(i64 8, ptr %5) #12
  %17 = load ptr, ptr %3, align 8, !tbaa !213
  %18 = getelementptr inbounds nuw %struct.OptionDef, ptr %17, i32 0, i32 2
  %19 = load i32, ptr %18, align 4, !tbaa !41
  %20 = and i32 %19, 256
  %21 = icmp ne i32 %20, 0
  br i1 %21, label %23, label %22

22:                                               ; preds = %16
  store i32 4, ptr %4, align 4
  br label %95

23:                                               ; preds = %16
  %24 = load ptr, ptr %2, align 8, !tbaa !151
  %25 = load ptr, ptr %3, align 8, !tbaa !213
  %26 = getelementptr inbounds nuw %struct.OptionDef, ptr %25, i32 0, i32 3
  %27 = load i64, ptr %26, align 8, !tbaa !9
  %28 = getelementptr inbounds nuw i8, ptr %24, i64 %27
  store ptr %28, ptr %5, align 8, !tbaa !26
  %29 = load ptr, ptr %3, align 8, !tbaa !213
  %30 = getelementptr inbounds nuw %struct.OptionDef, ptr %29, i32 0, i32 2
  %31 = load i32, ptr %30, align 4, !tbaa !41
  %32 = and i32 %31, 512
  %33 = icmp ne i32 %32, 0
  br i1 %33, label %34, label %86

34:                                               ; preds = %23
  call void @llvm.lifetime.start.p0(i64 8, ptr %6) #12
  %35 = load ptr, ptr %5, align 8, !tbaa !26
  store ptr %35, ptr %6, align 8, !tbaa !4
  call void @llvm.lifetime.start.p0(i64 4, ptr %7) #12
  store i32 0, ptr %7, align 4, !tbaa !16
  br label %36

36:                                               ; preds = %78, %34
  %37 = load i32, ptr %7, align 4, !tbaa !16
  %38 = load ptr, ptr %6, align 8, !tbaa !4
  %39 = getelementptr inbounds nuw %struct.SpecifierOptList, ptr %38, i32 0, i32 1
  %40 = load i32, ptr %39, align 8, !tbaa !10
  %41 = icmp slt i32 %37, %40
  br i1 %41, label %43, label %42

42:                                               ; preds = %36
  store i32 5, ptr %4, align 4
  call void @llvm.lifetime.end.p0(i64 4, ptr %7) #12
  br label %81

43:                                               ; preds = %36
  %44 = load ptr, ptr %6, align 8, !tbaa !4
  %45 = getelementptr inbounds nuw %struct.SpecifierOptList, ptr %44, i32 0, i32 0
  %46 = load ptr, ptr %45, align 8, !tbaa !17
  %47 = load i32, ptr %7, align 4, !tbaa !16
  %48 = sext i32 %47 to i64
  %49 = getelementptr inbounds %struct.SpecifierOpt, ptr %46, i64 %48
  %50 = getelementptr inbounds nuw %struct.SpecifierOpt, ptr %49, i32 0, i32 0
  call void @av_freep(ptr noundef %50)
  %51 = load ptr, ptr %3, align 8, !tbaa !213
  %52 = getelementptr inbounds nuw %struct.OptionDef, ptr %51, i32 0, i32 2
  %53 = load i32, ptr %52, align 4, !tbaa !41
  %54 = and i32 %53, 1024
  %55 = icmp ne i32 %54, 0
  br i1 %55, label %56, label %64

56:                                               ; preds = %43
  %57 = load ptr, ptr %6, align 8, !tbaa !4
  %58 = getelementptr inbounds nuw %struct.SpecifierOptList, ptr %57, i32 0, i32 0
  %59 = load ptr, ptr %58, align 8, !tbaa !17
  %60 = load i32, ptr %7, align 4, !tbaa !16
  %61 = sext i32 %60 to i64
  %62 = getelementptr inbounds %struct.SpecifierOpt, ptr %59, i64 %61
  %63 = getelementptr inbounds nuw %struct.SpecifierOpt, ptr %62, i32 0, i32 1
  call void @stream_specifier_uninit(ptr noundef %63)
  br label %64

64:                                               ; preds = %56, %43
  %65 = load ptr, ptr %3, align 8, !tbaa !213
  %66 = getelementptr inbounds nuw %struct.OptionDef, ptr %65, i32 0, i32 1
  %67 = load i32, ptr %66, align 8, !tbaa !214
  %68 = icmp eq i32 %67, 2
  br i1 %68, label %69, label %77

69:                                               ; preds = %64
  %70 = load ptr, ptr %6, align 8, !tbaa !4
  %71 = getelementptr inbounds nuw %struct.SpecifierOptList, ptr %70, i32 0, i32 0
  %72 = load ptr, ptr %71, align 8, !tbaa !17
  %73 = load i32, ptr %7, align 4, !tbaa !16
  %74 = sext i32 %73 to i64
  %75 = getelementptr inbounds %struct.SpecifierOpt, ptr %72, i64 %74
  %76 = getelementptr inbounds nuw %struct.SpecifierOpt, ptr %75, i32 0, i32 2
  call void @av_freep(ptr noundef %76)
  br label %77

77:                                               ; preds = %69, %64
  br label %78

78:                                               ; preds = %77
  %79 = load i32, ptr %7, align 4, !tbaa !16
  %80 = add nsw i32 %79, 1
  store i32 %80, ptr %7, align 4, !tbaa !16
  br label %36, !llvm.loop !215

81:                                               ; preds = %42
  %82 = load ptr, ptr %6, align 8, !tbaa !4
  %83 = getelementptr inbounds nuw %struct.SpecifierOptList, ptr %82, i32 0, i32 0
  call void @av_freep(ptr noundef %83)
  %84 = load ptr, ptr %6, align 8, !tbaa !4
  %85 = getelementptr inbounds nuw %struct.SpecifierOptList, ptr %84, i32 0, i32 1
  store i32 0, ptr %85, align 8, !tbaa !10
  call void @llvm.lifetime.end.p0(i64 8, ptr %6) #12
  br label %94

86:                                               ; preds = %23
  %87 = load ptr, ptr %3, align 8, !tbaa !213
  %88 = getelementptr inbounds nuw %struct.OptionDef, ptr %87, i32 0, i32 1
  %89 = load i32, ptr %88, align 8, !tbaa !214
  %90 = icmp eq i32 %89, 2
  br i1 %90, label %91, label %93

91:                                               ; preds = %86
  %92 = load ptr, ptr %5, align 8, !tbaa !26
  call void @av_freep(ptr noundef %92)
  br label %93

93:                                               ; preds = %91, %86
  br label %94

94:                                               ; preds = %93, %81
  store i32 0, ptr %4, align 4
  br label %95

95:                                               ; preds = %94, %22
  call void @llvm.lifetime.end.p0(i64 8, ptr %5) #12
  %96 = load i32, ptr %4, align 4
  switch i32 %96, label %145 [
    i32 0, label %97
    i32 4, label %98
  ]

97:                                               ; preds = %95
  br label %98

98:                                               ; preds = %97, %95
  %99 = load ptr, ptr %3, align 8, !tbaa !213
  %100 = getelementptr inbounds nuw %struct.OptionDef, ptr %99, i32 1
  store ptr %100, ptr %3, align 8, !tbaa !213
  br label %10, !llvm.loop !216

101:                                              ; preds = %15
  call void @llvm.lifetime.start.p0(i64 4, ptr %8) #12
  store i32 0, ptr %8, align 4, !tbaa !16
  br label %102

102:                                              ; preds = %117, %101
  %103 = load i32, ptr %8, align 4, !tbaa !16
  %104 = load ptr, ptr %2, align 8, !tbaa !151
  %105 = getelementptr inbounds nuw %struct.OptionsContext, ptr %104, i32 0, i32 31
  %106 = load i32, ptr %105, align 8, !tbaa !154
  %107 = icmp slt i32 %103, %106
  br i1 %107, label %109, label %108

108:                                              ; preds = %102
  store i32 8, ptr %4, align 4
  call void @llvm.lifetime.end.p0(i64 4, ptr %8) #12
  br label %120

109:                                              ; preds = %102
  %110 = load ptr, ptr %2, align 8, !tbaa !151
  %111 = getelementptr inbounds nuw %struct.OptionsContext, ptr %110, i32 0, i32 30
  %112 = load ptr, ptr %111, align 8, !tbaa !155
  %113 = load i32, ptr %8, align 4, !tbaa !16
  %114 = sext i32 %113 to i64
  %115 = getelementptr inbounds %struct.StreamMap, ptr %112, i64 %114
  %116 = getelementptr inbounds nuw %struct.StreamMap, ptr %115, i32 0, i32 3
  call void @av_freep(ptr noundef %116)
  br label %117

117:                                              ; preds = %109
  %118 = load i32, ptr %8, align 4, !tbaa !16
  %119 = add nsw i32 %118, 1
  store i32 %119, ptr %8, align 4, !tbaa !16
  br label %102, !llvm.loop !217

120:                                              ; preds = %108
  %121 = load ptr, ptr %2, align 8, !tbaa !151
  %122 = getelementptr inbounds nuw %struct.OptionsContext, ptr %121, i32 0, i32 30
  call void @av_freep(ptr noundef %122)
  call void @llvm.lifetime.start.p0(i64 4, ptr %9) #12
  store i32 0, ptr %9, align 4, !tbaa !16
  br label %123

123:                                              ; preds = %137, %120
  %124 = load i32, ptr %9, align 4, !tbaa !16
  %125 = load ptr, ptr %2, align 8, !tbaa !151
  %126 = getelementptr inbounds nuw %struct.OptionsContext, ptr %125, i32 0, i32 33
  %127 = load i32, ptr %126, align 8, !tbaa !188
  %128 = icmp slt i32 %124, %127
  br i1 %128, label %130, label %129

129:                                              ; preds = %123
  store i32 11, ptr %4, align 4
  call void @llvm.lifetime.end.p0(i64 4, ptr %9) #12
  br label %140

130:                                              ; preds = %123
  %131 = load ptr, ptr %2, align 8, !tbaa !151
  %132 = getelementptr inbounds nuw %struct.OptionsContext, ptr %131, i32 0, i32 32
  %133 = load ptr, ptr %132, align 8, !tbaa !189
  %134 = load i32, ptr %9, align 4, !tbaa !16
  %135 = sext i32 %134 to i64
  %136 = getelementptr inbounds ptr, ptr %133, i64 %135
  call void @av_freep(ptr noundef %136)
  br label %137

137:                                              ; preds = %130
  %138 = load i32, ptr %9, align 4, !tbaa !16
  %139 = add nsw i32 %138, 1
  store i32 %139, ptr %9, align 4, !tbaa !16
  br label %123, !llvm.loop !218

140:                                              ; preds = %129
  %141 = load ptr, ptr %2, align 8, !tbaa !151
  %142 = getelementptr inbounds nuw %struct.OptionsContext, ptr %141, i32 0, i32 32
  call void @av_freep(ptr noundef %142)
  %143 = load ptr, ptr %2, align 8, !tbaa !151
  %144 = getelementptr inbounds nuw %struct.OptionsContext, ptr %143, i32 0, i32 47
  call void @av_dict_free(ptr noundef %144)
  ret void

145:                                              ; preds = %95
  unreachable
}