; Function Attrs: nounwind uwtable
define internal fastcc void @uninit_options(ptr noundef nonnull %0) unnamed_addr #0 {
  br label %6

.preheader:                                       ; preds = %53
  %2 = getelementptr inbounds nuw i8, ptr %0, i64 576
  %3 = load i32, ptr %2, align 8, !tbaa !135
  %4 = icmp sgt i32 %3, 0
  br i1 %4, label %.lr.ph46, label %._crit_edge47

.lr.ph46:                                         ; preds = %.preheader
  %5 = getelementptr inbounds nuw i8, ptr %0, i64 568
  br label %61

6:                                                ; preds = %1, %53
  %.03643 = phi ptr [ @options, %1 ], [ %54, %53 ]
  %7 = getelementptr inbounds nuw i8, ptr %.03643, i64 12
  %8 = load i32, ptr %7, align 4, !tbaa !27
  %.fr52 = freeze i32 %8
  %9 = and i32 %.fr52, 256
  %.not37 = icmp eq i32 %9, 0
  br i1 %.not37, label %53, label %10

10:                                               ; preds = %6
  %11 = getelementptr inbounds nuw i8, ptr %.03643, i64 16
  %12 = load i64, ptr %11, align 8, !tbaa !19
  %13 = getelementptr inbounds nuw i8, ptr %0, i64 %12
  %14 = and i32 %.fr52, 512
  %.not38 = icmp eq i32 %14, 0
  br i1 %.not38, label %48, label %.preheader40

.preheader40:                                     ; preds = %10
  %15 = getelementptr inbounds nuw i8, ptr %13, i64 8
  %16 = load i32, ptr %15, align 8, !tbaa !4
  %17 = icmp sgt i32 %16, 0
  br i1 %17, label %.lr.ph, label %._crit_edge

.lr.ph:                                           ; preds = %.preheader40
  %18 = and i32 %.fr52, 1024
  %.not39 = icmp eq i32 %18, 0
  %19 = getelementptr inbounds nuw i8, ptr %.03643, i64 8
  %20 = load i32, ptr %19, align 8, !tbaa !177
  %21 = icmp eq i32 %20, 2
  br i1 %.not39, label %.lr.ph.split.us, label %.lr.ph.split

.lr.ph.split.us:                                  ; preds = %.lr.ph
  br i1 %21, label %.lr.ph.split.us.split.us, label %.lr.ph.split.us.split.preheader

.lr.ph.split.us.split.us:                         ; preds = %.lr.ph.split.us, %.lr.ph.split.us.split.us
  %indvars.iv63 = phi i64 [ %indvars.iv.next64, %.lr.ph.split.us.split.us ], [ 0, %.lr.ph.split.us ]
  %22 = load ptr, ptr %13, align 8, !tbaa !13
  %23 = getelementptr inbounds nuw %struct.SpecifierOpt, ptr %22, i64 %indvars.iv63
  tail call void @av_freep(ptr noundef %23) #15
  %24 = load ptr, ptr %13, align 8, !tbaa !13
  %25 = getelementptr inbounds nuw %struct.SpecifierOpt, ptr %24, i64 %indvars.iv63, i32 2
  tail call void @av_freep(ptr noundef nonnull %25) #15
  %indvars.iv.next64 = add nuw nsw i64 %indvars.iv63, 1
  %26 = load i32, ptr %15, align 8, !tbaa !4
  %27 = sext i32 %26 to i64
  %28 = icmp slt i64 %indvars.iv.next64, %27
  br i1 %28, label %.lr.ph.split.us.split.us, label %._crit_edge, !llvm.loop !178

.lr.ph.split.us.split.preheader:                  ; preds = %.lr.ph.split.us, %.lr.ph.split.us.split.preheader
  %indvars.iv60 = phi i64 [ %indvars.iv.next61, %.lr.ph.split.us.split.preheader ], [ 0, %.lr.ph.split.us ]
  %29 = load ptr, ptr %13, align 8, !tbaa !13
  %30 = getelementptr inbounds nuw %struct.SpecifierOpt, ptr %29, i64 %indvars.iv60
  tail call void @av_freep(ptr noundef %30) #15
  %.pre72 = load i32, ptr %15, align 8, !tbaa !4
  %indvars.iv.next61 = add nuw nsw i64 %indvars.iv60, 1
  %31 = sext i32 %.pre72 to i64
  %32 = icmp slt i64 %indvars.iv.next61, %31
  br i1 %32, label %.lr.ph.split.us.split.preheader, label %._crit_edge, !llvm.loop !179

.lr.ph.split:                                     ; preds = %.lr.ph
  br i1 %21, label %.lr.ph.split.split.us, label %.lr.ph.split.split.preheader

.lr.ph.split.split.us:                            ; preds = %.lr.ph.split, %.lr.ph.split.split.us
  %indvars.iv57 = phi i64 [ %indvars.iv.next58, %.lr.ph.split.split.us ], [ 0, %.lr.ph.split ]
  %33 = load ptr, ptr %13, align 8, !tbaa !13
  %34 = getelementptr inbounds nuw %struct.SpecifierOpt, ptr %33, i64 %indvars.iv57
  tail call void @av_freep(ptr noundef %34) #15
  %35 = load ptr, ptr %13, align 8, !tbaa !13
  %36 = getelementptr inbounds nuw %struct.SpecifierOpt, ptr %35, i64 %indvars.iv57, i32 1
  tail call void @stream_specifier_uninit(ptr noundef nonnull %36) #15
  %37 = load ptr, ptr %13, align 8, !tbaa !13
  %38 = getelementptr inbounds nuw %struct.SpecifierOpt, ptr %37, i64 %indvars.iv57, i32 2
  tail call void @av_freep(ptr noundef nonnull %38) #15
  %indvars.iv.next58 = add nuw nsw i64 %indvars.iv57, 1
  %39 = load i32, ptr %15, align 8, !tbaa !4
  %40 = sext i32 %39 to i64
  %41 = icmp slt i64 %indvars.iv.next58, %40
  br i1 %41, label %.lr.ph.split.split.us, label %._crit_edge, !llvm.loop !178

._crit_edge:                                      ; preds = %.lr.ph.split.split.preheader, %.lr.ph.split.split.us, %.lr.ph.split.us.split.preheader, %.lr.ph.split.us.split.us, %.preheader40
  tail call void @av_freep(ptr noundef nonnull %13) #15
  store i32 0, ptr %15, align 8, !tbaa !4
  br label %53

.lr.ph.split.split.preheader:                     ; preds = %.lr.ph.split, %.lr.ph.split.split.preheader
  %indvars.iv = phi i64 [ %indvars.iv.next, %.lr.ph.split.split.preheader ], [ 0, %.lr.ph.split ]
  %42 = load ptr, ptr %13, align 8, !tbaa !13
  %43 = getelementptr inbounds nuw %struct.SpecifierOpt, ptr %42, i64 %indvars.iv
  tail call void @av_freep(ptr noundef %43) #15
  %44 = load ptr, ptr %13, align 8, !tbaa !13
  %45 = getelementptr inbounds nuw %struct.SpecifierOpt, ptr %44, i64 %indvars.iv, i32 1
  tail call void @stream_specifier_uninit(ptr noundef nonnull %45) #15
  %.pre = load i32, ptr %15, align 8, !tbaa !4
  %indvars.iv.next = add nuw nsw i64 %indvars.iv, 1
  %46 = sext i32 %.pre to i64
  %47 = icmp slt i64 %indvars.iv.next, %46
  br i1 %47, label %.lr.ph.split.split.preheader, label %._crit_edge, !llvm.loop !181

48:                                               ; preds = %10
  %49 = getelementptr inbounds nuw i8, ptr %.03643, i64 8
  %50 = load i32, ptr %49, align 8, !tbaa !177
  %51 = icmp eq i32 %50, 2
  br i1 %51, label %52, label %53

52:                                               ; preds = %48
  tail call void @av_freep(ptr noundef nonnull %13) #15
  br label %53

53:                                               ; preds = %._crit_edge, %52, %48, %6
  %54 = getelementptr inbounds nuw i8, ptr %.03643, i64 48
  %55 = load ptr, ptr %54, align 8, !tbaa !25
  %.not = icmp eq ptr %55, null
  br i1 %.not, label %.preheader, label %6, !llvm.loop !182

._crit_edge47:                                    ; preds = %61, %.preheader
  %56 = getelementptr inbounds nuw i8, ptr %0, i64 568
  tail call void @av_freep(ptr noundef nonnull %56) #15
  %57 = getelementptr inbounds nuw i8, ptr %0, i64 592
  %58 = load i32, ptr %57, align 8, !tbaa !166
  %59 = icmp sgt i32 %58, 0
  br i1 %59, label %.lr.ph50, label %._crit_edge51

.lr.ph50:                                         ; preds = %._crit_edge47
  %60 = getelementptr inbounds nuw i8, ptr %0, i64 584
  br label %69

61:                                               ; preds = %.lr.ph46, %61
  %indvars.iv66 = phi i64 [ 0, %.lr.ph46 ], [ %indvars.iv.next67, %61 ]
  %62 = load ptr, ptr %5, align 8, !tbaa !136
  %63 = getelementptr inbounds nuw %struct.StreamMap, ptr %62, i64 %indvars.iv66, i32 3
  tail call void @av_freep(ptr noundef nonnull %63) #15
  %indvars.iv.next67 = add nuw nsw i64 %indvars.iv66, 1
  %64 = load i32, ptr %2, align 8, !tbaa !135
  %65 = sext i32 %64 to i64
  %66 = icmp slt i64 %indvars.iv.next67, %65
  br i1 %66, label %61, label %._crit_edge47, !llvm.loop !183

._crit_edge51:                                    ; preds = %69, %._crit_edge47
  %67 = getelementptr inbounds nuw i8, ptr %0, i64 584
  tail call void @av_freep(ptr noundef nonnull %67) #15
  %68 = getelementptr inbounds nuw i8, ptr %0, i64 664
  tail call void @av_dict_free(ptr noundef nonnull %68) #15
  ret void

69:                                               ; preds = %.lr.ph50, %69
  %indvars.iv69 = phi i64 [ 0, %.lr.ph50 ], [ %indvars.iv.next70, %69 ]
  %70 = load ptr, ptr %60, align 8, !tbaa !167
  %71 = getelementptr inbounds nuw ptr, ptr %70, i64 %indvars.iv69
  tail call void @av_freep(ptr noundef %71) #15
  %indvars.iv.next70 = add nuw nsw i64 %indvars.iv69, 1
  %72 = load i32, ptr %57, align 8, !tbaa !166
  %73 = sext i32 %72 to i64
  %74 = icmp slt i64 %indvars.iv.next70, %73
  br i1 %74, label %69, label %._crit_edge51, !llvm.loop !184
}